target datalayout = "e-m:e-p270:32:32-p271:32:32-p272:64:64-i64:64-i128:128-f80:128-n8:16:32:64-S128"
target triple = "x86_64-pc-linux-gnu"

%struct.ml_dsa_keygen_test_data_st = type { ptr, ptr, i64, ptr, i64, ptr, i64 }

@.str.29 = private unnamed_addr constant [30 x i8] c"../openssl/test/ml_dsa_test.c\00", align 1
@.str.115 = private unnamed_addr constant [45 x i8] c"pub = OPENSSL_memdup(tst->pub, tst->pub_len)\00", align 1
@.str.116 = private unnamed_addr constant [93 x i8] c"ml_dsa_create_keypair(&pkey, tst->name, tst->priv, tst->priv_len, tst->pub, tst->pub_len, 1)\00", align 1
@.str.117 = private unnamed_addr constant [88 x i8] c"ml_dsa_create_keypair(&pkey, tst->name, tst->priv, tst->priv_len, pub, tst->pub_len, 0)\00", align 1
@.str.118 = private unnamed_addr constant [97 x i8] c"ml_dsa_create_keypair(&pkey, tst->name, tst->priv, tst->priv_len, tst->pub, tst->pub_len - 1, 0)\00", align 1
@.str.119 = private unnamed_addr constant [97 x i8] c"ml_dsa_create_keypair(&pkey, tst->name, tst->priv, tst->priv_len, tst->pub, tst->pub_len + 1, 0)\00", align 1
@.str.120 = private unnamed_addr constant [97 x i8] c"ml_dsa_create_keypair(&pkey, tst->name, tst->priv, tst->priv_len - 1, tst->pub, tst->pub_len, 0)\00", align 1
@.str.121 = private unnamed_addr constant [97 x i8] c"ml_dsa_create_keypair(&pkey, tst->name, tst->priv, tst->priv_len + 1, tst->pub, tst->pub_len, 0)\00", align 1

; Function Attrs: nounwind uwtable
define internal i32 @from_data_invalid_public_test() #0 {
  %1 = alloca i32, align 4
  %2 = alloca ptr, align 8
  %3 = alloca ptr, align 8
  %4 = alloca ptr, align 8
  call void @llvm.lifetime.start.p0(i64 4, ptr %1) #4
  store i32 0, ptr %1, align 4, !tbaa !9
  call void @llvm.lifetime.start.p0(i64 8, ptr %2) #4
  store ptr @ml_dsa_keygen_testdata, ptr %2, align 8, !tbaa !13
  call void @llvm.lifetime.start.p0(i64 8, ptr %3) #4
  store ptr null, ptr %3, align 8, !tbaa !4
  call void @llvm.lifetime.start.p0(i64 8, ptr %4) #4
  store ptr null, ptr %4, align 8, !tbaa !15
  %5 = load ptr, ptr %2, align 8, !tbaa !13
  %6 = getelementptr inbounds nuw %struct.ml_dsa_keygen_test_data_st, ptr %5, i32 0, i32 3
  %7 = load ptr, ptr %6, align 8, !tbaa !23
  %8 = load ptr, ptr %2, align 8, !tbaa !13
  %9 = getelementptr inbounds nuw %struct.ml_dsa_keygen_test_data_st, ptr %8, i32 0, i32 4
  %10 = load i64, ptr %9, align 8, !tbaa !24
  %11 = call noalias ptr @CRYPTO_memdup(ptr noundef %7, i64 noundef %10, ptr noundef @.str.29, i32 noundef 254)
  store ptr %11, ptr %3, align 8, !tbaa !4
  %12 = call i32 @test_ptr(ptr noundef @.str.29, i32 noundef 254, ptr noundef @.str.115, ptr noundef %11)
  %13 = icmp ne i32 %12, 0
  br i1 %13, label %15, label %14

14:                                               ; preds = %0
  br label %151

15:                                               ; preds = %0
  %16 = load ptr, ptr %3, align 8, !tbaa !4
  %17 = getelementptr inbounds i8, ptr %16, i64 0
  %18 = load i8, ptr %17, align 1, !tbaa !62
  %19 = zext i8 %18 to i32
  %20 = xor i32 %19, 1
  %21 = trunc i32 %20 to i8
  store i8 %21, ptr %17, align 1, !tbaa !62
  %22 = load ptr, ptr %2, align 8, !tbaa !13
  %23 = getelementptr inbounds nuw %struct.ml_dsa_keygen_test_data_st, ptr %22, i32 0, i32 0
  %24 = load ptr, ptr %23, align 8, !tbaa !17
  %25 = load ptr, ptr %2, align 8, !tbaa !13
  %26 = getelementptr inbounds nuw %struct.ml_dsa_keygen_test_data_st, ptr %25, i32 0, i32 5
  %27 = load ptr, ptr %26, align 8, !tbaa !25
  %28 = load ptr, ptr %2, align 8, !tbaa !13
  %29 = getelementptr inbounds nuw %struct.ml_dsa_keygen_test_data_st, ptr %28, i32 0, i32 6
  %30 = load i64, ptr %29, align 8, !tbaa !26
  %31 = load ptr, ptr %2, align 8, !tbaa !13
  %32 = getelementptr inbounds nuw %struct.ml_dsa_keygen_test_data_st, ptr %31, i32 0, i32 3
  %33 = load ptr, ptr %32, align 8, !tbaa !23
  %34 = load ptr, ptr %2, align 8, !tbaa !13
  %35 = getelementptr inbounds nuw %struct.ml_dsa_keygen_test_data_st, ptr %34, i32 0, i32 4
  %36 = load i64, ptr %35, align 8, !tbaa !24
  %37 = call i32 @ml_dsa_create_keypair(ptr noundef %4, ptr noundef %24, ptr noundef %27, i64 noundef %30, ptr noundef %33, i64 noundef %36, i32 noundef 1)
  %38 = icmp ne i32 %37, 0
  %39 = zext i1 %38 to i32
  %40 = call i32 @test_true(ptr noundef @.str.29, i32 noundef 259, ptr noundef @.str.116, i32 noundef %39)
  %41 = icmp ne i32 %40, 0
  br i1 %41, label %42, label %149

42:                                               ; preds = %15
  %43 = load ptr, ptr %2, align 8, !tbaa !13
  %44 = getelementptr inbounds nuw %struct.ml_dsa_keygen_test_data_st, ptr %43, i32 0, i32 0
  %45 = load ptr, ptr %44, align 8, !tbaa !17
  %46 = load ptr, ptr %2, align 8, !tbaa !13
  %47 = getelementptr inbounds nuw %struct.ml_dsa_keygen_test_data_st, ptr %46, i32 0, i32 5
  %48 = load ptr, ptr %47, align 8, !tbaa !25
  %49 = load ptr, ptr %2, align 8, !tbaa !13
  %50 = getelementptr inbounds nuw %struct.ml_dsa_keygen_test_data_st, ptr %49, i32 0, i32 6
  %51 = load i64, ptr %50, align 8, !tbaa !26
  %52 = load ptr, ptr %3, align 8, !tbaa !4
  %53 = load ptr, ptr %2, align 8, !tbaa !13
  %54 = getelementptr inbounds nuw %struct.ml_dsa_keygen_test_data_st, ptr %53, i32 0, i32 4
  %55 = load i64, ptr %54, align 8, !tbaa !24
  %56 = call i32 @ml_dsa_create_keypair(ptr noundef %4, ptr noundef %45, ptr noundef %48, i64 noundef %51, ptr noundef %52, i64 noundef %55, i32 noundef 0)
  %57 = icmp ne i32 %56, 0
  %58 = zext i1 %57 to i32
  %59 = call i32 @test_true(ptr noundef @.str.29, i32 noundef 261, ptr noundef @.str.117, i32 noundef %58)
  %60 = icmp ne i32 %59, 0
  br i1 %60, label %61, label %149

61:                                               ; preds = %42
  %62 = load ptr, ptr %2, align 8, !tbaa !13
  %63 = getelementptr inbounds nuw %struct.ml_dsa_keygen_test_data_st, ptr %62, i32 0, i32 0
  %64 = load ptr, ptr %63, align 8, !tbaa !17
  %65 = load ptr, ptr %2, align 8, !tbaa !13
  %66 = getelementptr inbounds nuw %struct.ml_dsa_keygen_test_data_st, ptr %65, i32 0, i32 5
  %67 = load ptr, ptr %66, align 8, !tbaa !25
  %68 = load ptr, ptr %2, align 8, !tbaa !13
  %69 = getelementptr inbounds nuw %struct.ml_dsa_keygen_test_data_st, ptr %68, i32 0, i32 6
  %70 = load i64, ptr %69, align 8, !tbaa !26
  %71 = load ptr, ptr %2, align 8, !tbaa !13
  %72 = getelementptr inbounds nuw %struct.ml_dsa_keygen_test_data_st, ptr %71, i32 0, i32 3
  %73 = load ptr, ptr %72, align 8, !tbaa !23
  %74 = load ptr, ptr %2, align 8, !tbaa !13
  %75 = getelementptr inbounds nuw %struct.ml_dsa_keygen_test_data_st, ptr %74, i32 0, i32 4
  %76 = load i64, ptr %75, align 8, !tbaa !24
  %77 = sub i64 %76, 1
  %78 = call i32 @ml_dsa_create_keypair(ptr noundef %4, ptr noundef %64, ptr noundef %67, i64 noundef %70, ptr noundef %73, i64 noundef %77, i32 noundef 0)
  %79 = icmp ne i32 %78, 0
  %80 = zext i1 %79 to i32
  %81 = call i32 @test_true(ptr noundef @.str.29, i32 noundef 263, ptr noundef @.str.118, i32 noundef %80)
  %82 = icmp ne i32 %81, 0
  br i1 %82, label %83, label %149

83:                                               ; preds = %61
  %84 = load ptr, ptr %2, align 8, !tbaa !13
  %85 = getelementptr inbounds nuw %struct.ml_dsa_keygen_test_data_st, ptr %84, i32 0, i32 0
  %86 = load ptr, ptr %85, align 8, !tbaa !17
  %87 = load ptr, ptr %2, align 8, !tbaa !13
  %88 = getelementptr inbounds nuw %struct.ml_dsa_keygen_test_data_st, ptr %87, i32 0, i32 5
  %89 = load ptr, ptr %88, align 8, !tbaa !25
  %90 = load ptr, ptr %2, align 8, !tbaa !13
  %91 = getelementptr inbounds nuw %struct.ml_dsa_keygen_test_data_st, ptr %90, i32 0, i32 6
  %92 = load i64, ptr %91, align 8, !tbaa !26
  %93 = load ptr, ptr %2, align 8, !tbaa !13
  %94 = getelementptr inbounds nuw %struct.ml_dsa_keygen_test_data_st, ptr %93, i32 0, i32 3
  %95 = load ptr, ptr %94, align 8, !tbaa !23
  %96 = load ptr, ptr %2, align 8, !tbaa !13
  %97 = getelementptr inbounds nuw %struct.ml_dsa_keygen_test_data_st, ptr %96, i32 0, i32 4
  %98 = load i64, ptr %97, align 8, !tbaa !24
  %99 = add i64 %98, 1
  %100 = call i32 @ml_dsa_create_keypair(ptr noundef %4, ptr noundef %86, ptr noundef %89, i64 noundef %92, ptr noundef %95, i64 noundef %99, i32 noundef 0)
  %101 = icmp ne i32 %100, 0
  %102 = zext i1 %101 to i32
  %103 = call i32 @test_true(ptr noundef @.str.29, i32 noundef 265, ptr noundef @.str.119, i32 noundef %102)
  %104 = icmp ne i32 %103, 0
  br i1 %104, label %105, label %149

105:                                              ; preds = %83
  %106 = load ptr, ptr %2, align 8, !tbaa !13
  %107 = getelementptr inbounds nuw %struct.ml_dsa_keygen_test_data_st, ptr %106, i32 0, i32 0
  %108 = load ptr, ptr %107, align 8, !tbaa !17
  %109 = load ptr, ptr %2, align 8, !tbaa !13
  %110 = getelementptr inbounds nuw %struct.ml_dsa_keygen_test_data_st, ptr %109, i32 0, i32 5
  %111 = load ptr, ptr %110, align 8, !tbaa !25
  %112 = load ptr, ptr %2, align 8, !tbaa !13
  %113 = getelementptr inbounds nuw %struct.ml_dsa_keygen_test_data_st, ptr %112, i32 0, i32 6
  %114 = load i64, ptr %113, align 8, !tbaa !26
  %115 = sub i64 %114, 1
  %116 = load ptr, ptr %2, align 8, !tbaa !13
  %117 = getelementptr inbounds nuw %struct.ml_dsa_keygen_test_data_st, ptr %116, i32 0, i32 3
  %118 = load ptr, ptr %117, align 8, !tbaa !23
  %119 = load ptr, ptr %2, align 8, !tbaa !13
  %120 = getelementptr inbounds nuw %struct.ml_dsa_keygen_test_data_st, ptr %119, i32 0, i32 4
  %121 = load i64, ptr %120, align 8, !tbaa !24
  %122 = call i32 @ml_dsa_create_keypair(ptr noundef %4, ptr noundef %108, ptr noundef %111, i64 noundef %115, ptr noundef %118, i64 noundef %121, i32 noundef 0)
  %123 = icmp ne i32 %122, 0
  %124 = zext i1 %123 to i32
  %125 = call i32 @test_true(ptr noundef @.str.29, i32 noundef 267, ptr noundef @.str.120, i32 noundef %124)
  %126 = icmp ne i32 %125, 0
  br i1 %126, label %127, label %149

127:                                              ; preds = %105
  %128 = load ptr, ptr %2, align 8, !tbaa !13
  %129 = getelementptr inbounds nuw %struct.ml_dsa_keygen_test_data_st, ptr %128, i32 0, i32 0
  %130 = load ptr, ptr %129, align 8, !tbaa !17
  %131 = load ptr, ptr %2, align 8, !tbaa !13
  %132 = getelementptr inbounds nuw %struct.ml_dsa_keygen_test_data_st, ptr %131, i32 0, i32 5
  %133 = load ptr, ptr %132, align 8, !tbaa !25
  %134 = load ptr, ptr %2, align 8, !tbaa !13
  %135 = getelementptr inbounds nuw %struct.ml_dsa_keygen_test_data_st, ptr %134, i32 0, i32 6
  %136 = load i64, ptr %135, align 8, !tbaa !26
  %137 = add i64 %136, 1
  %138 = load ptr, ptr %2, align 8, !tbaa !13
  %139 = getelementptr inbounds nuw %struct.ml_dsa_keygen_test_data_st, ptr %138, i32 0, i32 3
  %140 = load ptr, ptr %139, align 8, !tbaa !23
  %141 = load ptr, ptr %2, align 8, !tbaa !13
  %142 = getelementptr inbounds nuw %struct.ml_dsa_keygen_test_data_st, ptr %141, i32 0, i32 4
  %143 = load i64, ptr %142, align 8, !tbaa !24
  %144 = call i32 @ml_dsa_create_keypair(ptr noundef %4, ptr noundef %130, ptr noundef %133, i64 noundef %137, ptr noundef %140, i64 noundef %143, i32 noundef 0)
  %145 = icmp ne i32 %144, 0
  %146 = zext i1 %145 to i32
  %147 = call i32 @test_true(ptr noundef @.str.29, i32 noundef 269, ptr noundef @.str.121, i32 noundef %146)
  %148 = icmp ne i32 %147, 0
  br i1 %148, label %150, label %149

149:                                              ; preds = %127, %105, %83, %61, %42, %15
  br label %151

150:                                              ; preds = %127
  store i32 1, ptr %1, align 4, !tbaa !9
  br label %151

151:                                              ; preds = %150, %149, %14
  %152 = load ptr, ptr %3, align 8, !tbaa !4
  call void @CRYPTO_free(ptr noundef %152, ptr noundef @.str.29, i32 noundef 274)
  %153 = load ptr, ptr %4, align 8, !tbaa !15
  call void @EVP_PKEY_free(ptr noundef %153)
  %154 = load i32, ptr %1, align 4, !tbaa !9
  call void @llvm.lifetime.end.p0(i64 8, ptr %4) #4
  call void @llvm.lifetime.end.p0(i64 8, ptr %3) #4
  call void @llvm.lifetime.end.p0(i64 8, ptr %2) #4
  call void @llvm.lifetime.end.p0(i64 4, ptr %1) #4
  ret i32 %154
}