; Function Attrs: nounwind uwtable
define internal range(i32 0, 2) i32 @from_data_invalid_public_test() #1 {
  %1 = alloca ptr, align 8
  call void @llvm.lifetime.start.p0(i64 8, ptr nonnull %1) #5
  store ptr null, ptr %1, align 8, !tbaa !16
  %2 = tail call noalias ptr @CRYPTO_memdup(ptr noundef nonnull @ml_dsa_65_0_keygen_pub, i64 noundef 1952, ptr noundef nonnull @.str.29, i32 noundef 254) #5
  %3 = tail call i32 @test_ptr(ptr noundef nonnull @.str.29, i32 noundef 254, ptr noundef nonnull @.str.115, ptr noundef %2) #5
  %.not = icmp eq i32 %3, 0
  br i1 %.not, label %24, label %4

4:                                                ; preds = %0
  %5 = load i8, ptr %2, align 1, !tbaa !32
  %6 = xor i8 %5, 1
  store i8 %6, ptr %2, align 1, !tbaa !32
  %7 = call fastcc i32 @ml_dsa_create_keypair(ptr noundef %1, ptr noundef nonnull @.str.39, ptr noundef nonnull @ml_dsa_65_0_keygen_priv, i64 noundef 4032, ptr noundef nonnull @ml_dsa_65_0_keygen_pub, i64 noundef 1952, i32 noundef 1)
  %8 = call i32 @test_true(ptr noundef nonnull @.str.29, i32 noundef 259, ptr noundef nonnull @.str.116, i32 noundef %7) #5
  %.not34 = icmp eq i32 %8, 0
  br i1 %.not34, label %24, label %9

9:                                                ; preds = %4
  %10 = call fastcc i32 @ml_dsa_create_keypair(ptr noundef %1, ptr noundef nonnull @.str.39, ptr noundef nonnull @ml_dsa_65_0_keygen_priv, i64 noundef 4032, ptr noundef nonnull %2, i64 noundef 1952, i32 noundef 0)
  %11 = call i32 @test_true(ptr noundef nonnull @.str.29, i32 noundef 261, ptr noundef nonnull @.str.117, i32 noundef %10) #5
  %.not35 = icmp eq i32 %11, 0
  br i1 %.not35, label %24, label %12

12:                                               ; preds = %9
  %13 = call fastcc i32 @ml_dsa_create_keypair(ptr noundef %1, ptr noundef nonnull @.str.39, ptr noundef nonnull @ml_dsa_65_0_keygen_priv, i64 noundef 4032, ptr noundef nonnull @ml_dsa_65_0_keygen_pub, i64 noundef 1951, i32 noundef 0)
  %14 = call i32 @test_true(ptr noundef nonnull @.str.29, i32 noundef 263, ptr noundef nonnull @.str.118, i32 noundef %13) #5
  %.not36 = icmp eq i32 %14, 0
  br i1 %.not36, label %24, label %15

15:                                               ; preds = %12
  %16 = call fastcc i32 @ml_dsa_create_keypair(ptr noundef %1, ptr noundef nonnull @.str.39, ptr noundef nonnull @ml_dsa_65_0_keygen_priv, i64 noundef 4032, ptr noundef nonnull @ml_dsa_65_0_keygen_pub, i64 noundef 1953, i32 noundef 0)
  %17 = call i32 @test_true(ptr noundef nonnull @.str.29, i32 noundef 265, ptr noundef nonnull @.str.119, i32 noundef %16) #5
  %.not37 = icmp eq i32 %17, 0
  br i1 %.not37, label %24, label %18

18:                                               ; preds = %15
  %19 = call fastcc i32 @ml_dsa_create_keypair(ptr noundef %1, ptr noundef nonnull @.str.39, ptr noundef nonnull @ml_dsa_65_0_keygen_priv, i64 noundef 4031, ptr noundef nonnull @ml_dsa_65_0_keygen_pub, i64 noundef 1952, i32 noundef 0)
  %20 = call i32 @test_true(ptr noundef nonnull @.str.29, i32 noundef 267, ptr noundef nonnull @.str.120, i32 noundef %19) #5
  %.not38 = icmp eq i32 %20, 0
  br i1 %.not38, label %24, label %21

21:                                               ; preds = %18
  %22 = call fastcc i32 @ml_dsa_create_keypair(ptr noundef %1, ptr noundef nonnull @.str.39, ptr noundef nonnull @ml_dsa_65_0_keygen_priv, i64 noundef 4033, ptr noundef nonnull @ml_dsa_65_0_keygen_pub, i64 noundef 1952, i32 noundef 0)
  %23 = call i32 @test_true(ptr noundef nonnull @.str.29, i32 noundef 269, ptr noundef nonnull @.str.121, i32 noundef %22) #5
  %.not39 = icmp ne i32 %23, 0
  %spec.select = zext i1 %.not39 to i32
  br label %24

24:                                               ; preds = %21, %4, %9, %12, %15, %18, %0
  %.0 = phi i32 [ 0, %18 ], [ 0, %15 ], [ 0, %12 ], [ 0, %9 ], [ 0, %4 ], [ 0, %0 ], [ %spec.select, %21 ]
  call void @CRYPTO_free(ptr noundef %2, ptr noundef nonnull @.str.29, i32 noundef 274) #5
  %25 = load ptr, ptr %1, align 8, !tbaa !16
  call void @EVP_PKEY_free(ptr noundef %25) #5
  call void @llvm.lifetime.end.p0(i64 8, ptr nonnull %1) #5
  ret i32 %.0
}